target datalayout = "e-m:e-p270:32:32-p271:32:32-p272:64:64-i64:64-i128:128-f80:128-n8:16:32:64-S128"
target triple = "x86_64-pc-linux-gnu"

%struct.option = type { i32, i32, ptr, ptr, ptr, ptr, i32, ptr, i64, ptr, i64, ptr }

@.str.14 = private unnamed_addr constant [6 x i8] c"fetch\00", align 1
@.str.43 = private unnamed_addr constant [3 x i8] c"%s\00", align 1
@mirror_advice = internal constant [91 x i8] c"--mirror is dangerous and deprecated; please\0A\09 use --mirror=fetch or --mirror=push instead\00", align 16
@.str.44 = private unnamed_addr constant [5 x i8] c"push\00", align 1
@.str.45 = private unnamed_addr constant [30 x i8] c"unknown --mirror argument: %s\00", align 1
@git_gettext_enabled = external global i32, align 4
@.str.158 = private unnamed_addr constant [1 x i8] zeroinitializer, align 1

; Function Attrs: inlinehint nounwind uwtable
define internal i32 @const_error() #4 {
  ret i32 -1
}

; Function Attrs: inlinehint nounwind uwtable
define internal ptr @_(ptr noundef %0) #4 {
  %2 = alloca ptr, align 8
  %3 = alloca ptr, align 8
  store ptr %0, ptr %3, align 8, !tbaa !11
  %4 = load ptr, ptr %3, align 8, !tbaa !11
  %5 = load i8, ptr %4, align 1, !tbaa !125
  %6 = icmp ne i8 %5, 0
  br i1 %6, label %8, label %7

7:                                                ; preds = %1
  store ptr @.str.158, ptr %2, align 8
  br label %16

8:                                                ; preds = %1
  %9 = load i32, ptr @git_gettext_enabled, align 4, !tbaa !4
  %10 = icmp ne i32 %9, 0
  br i1 %10, label %13, label %11

11:                                               ; preds = %8
  %12 = load ptr, ptr %3, align 8, !tbaa !11
  store ptr %12, ptr %2, align 8
  br label %16

13:                                               ; preds = %8
  %14 = load ptr, ptr %3, align 8, !tbaa !11
  %15 = call ptr @dcgettext(ptr noundef null, ptr noundef %14, i32 noundef 5) #11
  store ptr %15, ptr %2, align 8
  br label %16

16:                                               ; preds = %13, %11, %7
  %17 = load ptr, ptr %2, align 8
  ret ptr %17
}

; Function Attrs: nounwind uwtable
define internal i32 @parse_mirror_opt(ptr noundef %0, ptr noundef %1, i32 noundef %2) #0 {
  %4 = alloca i32, align 4
  %5 = alloca ptr, align 8
  %6 = alloca ptr, align 8
  %7 = alloca i32, align 4
  %8 = alloca ptr, align 8
  %9 = alloca i32, align 4
  store ptr %0, ptr %5, align 8, !tbaa !127
  store ptr %1, ptr %6, align 8, !tbaa !11
  store i32 %2, ptr %7, align 4, !tbaa !4
  call void @llvm.lifetime.start.p0(i64 8, ptr %8) #11
  %10 = load ptr, ptr %5, align 8, !tbaa !127
  %11 = getelementptr inbounds nuw %struct.option, ptr %10, i32 0, i32 3
  %12 = load ptr, ptr %11, align 8, !tbaa !21
  store ptr %12, ptr %8, align 8, !tbaa !129
  %13 = load i32, ptr %7, align 4, !tbaa !4
  %14 = icmp ne i32 %13, 0
  br i1 %14, label %15, label %17

15:                                               ; preds = %3
  %16 = load ptr, ptr %8, align 8, !tbaa !129
  store i32 0, ptr %16, align 4, !tbaa !4
  br label %43

17:                                               ; preds = %3
  %18 = load ptr, ptr %6, align 8, !tbaa !11
  %19 = icmp ne ptr %18, null
  br i1 %19, label %23, label %20

20:                                               ; preds = %17
  %21 = call ptr @_(ptr noundef @mirror_advice)
  call void (ptr, ...) @warning(ptr noundef @.str.43, ptr noundef %21)
  %22 = load ptr, ptr %8, align 8, !tbaa !129
  store i32 3, ptr %22, align 4, !tbaa !4
  br label %42

23:                                               ; preds = %17
  %24 = load ptr, ptr %6, align 8, !tbaa !11
  %25 = call i32 @strcmp(ptr noundef %24, ptr noundef @.str.14) #14
  %26 = icmp ne i32 %25, 0
  br i1 %26, label %29, label %27

27:                                               ; preds = %23
  %28 = load ptr, ptr %8, align 8, !tbaa !129
  store i32 1, ptr %28, align 4, !tbaa !4
  br label %41

29:                                               ; preds = %23
  %30 = load ptr, ptr %6, align 8, !tbaa !11
  %31 = call i32 @strcmp(ptr noundef %30, ptr noundef @.str.44) #14
  %32 = icmp ne i32 %31, 0
  br i1 %32, label %35, label %33

33:                                               ; preds = %29
  %34 = load ptr, ptr %8, align 8, !tbaa !129
  store i32 2, ptr %34, align 4, !tbaa !4
  br label %40

35:                                               ; preds = %29
  %36 = call ptr @_(ptr noundef @.str.45)
  %37 = load ptr, ptr %6, align 8, !tbaa !11
  %38 = call i32 (ptr, ...) @error(ptr noundef %36, ptr noundef %37)
  %39 = call i32 @const_error()
  store i32 %39, ptr %4, align 4
  store i32 1, ptr %9, align 4
  br label %44

40:                                               ; preds = %33
  br label %41

41:                                               ; preds = %40, %27
  br label %42

42:                                               ; preds = %41, %20
  br label %43

43:                                               ; preds = %42, %15
  store i32 0, ptr %4, align 4
  store i32 1, ptr %9, align 4
  br label %44

44:                                               ; preds = %43, %35
  call void @llvm.lifetime.end.p0(i64 8, ptr %8) #11
  %45 = load i32, ptr %4, align 4
  ret i32 %45
}