; Function Attrs: nounwind uwtable
define internal range(i32 -1, 1) i32 @parse_mirror_opt(ptr noundef readonly captures(none) %0, ptr noundef %1, i32 noundef %2) #0 {
  %4 = getelementptr inbounds nuw i8, ptr %0, i64 16
  %5 = load ptr, ptr %4, align 8, !tbaa !15
  %.not = icmp eq i32 %2, 0
  br i1 %.not, label %7, label %6

6:                                                ; preds = %3
  store i32 0, ptr %5, align 4, !tbaa !21
  br label %23

7:                                                ; preds = %3
  %.not11 = icmp eq ptr %1, null
  br i1 %.not11, label %8, label %12

8:                                                ; preds = %7
  %9 = load i32, ptr @git_gettext_enabled, align 4, !tbaa !21
  %.not4.i = icmp eq i32 %9, 0
  br i1 %.not4.i, label %_.exit, label %10

10:                                               ; preds = %8
  %11 = tail call ptr @dcgettext(ptr noundef null, ptr noundef nonnull @mirror_advice, i32 noundef 5) #19
  br label %_.exit

_.exit:                                           ; preds = %8, %10
  %.0.i = phi ptr [ %11, %10 ], [ @mirror_advice, %8 ]
  tail call void (ptr, ...) @warning(ptr noundef nonnull @.str.43, ptr noundef %.0.i) #19
  store i32 3, ptr %5, align 4, !tbaa !21
  br label %23

12:                                               ; preds = %7
  %13 = tail call i32 @strcmp(ptr noundef nonnull dereferenceable(1) %1, ptr noundef nonnull dereferenceable(6) @.str.14) #21
  %.not12 = icmp eq i32 %13, 0
  br i1 %.not12, label %14, label %15

14:                                               ; preds = %12
  store i32 1, ptr %5, align 4, !tbaa !21
  br label %23

15:                                               ; preds = %12
  %16 = tail call i32 @strcmp(ptr noundef nonnull dereferenceable(1) %1, ptr noundef nonnull dereferenceable(5) @.str.44) #21
  %.not13 = icmp eq i32 %16, 0
  br i1 %.not13, label %17, label %18

17:                                               ; preds = %15
  store i32 2, ptr %5, align 4, !tbaa !21
  br label %23

18:                                               ; preds = %15
  %19 = load i32, ptr @git_gettext_enabled, align 4, !tbaa !21
  %.not4.i14 = icmp eq i32 %19, 0
  br i1 %.not4.i14, label %_.exit16, label %20

20:                                               ; preds = %18
  %21 = tail call ptr @dcgettext(ptr noundef null, ptr noundef nonnull @.str.45, i32 noundef 5) #19
  br label %_.exit16

_.exit16:                                         ; preds = %18, %20
  %.0.i15 = phi ptr [ %21, %20 ], [ @.str.45, %18 ]
  %22 = tail call i32 (ptr, ...) @error(ptr noundef %.0.i15, ptr noundef nonnull %1) #19
  br label %23

23:                                               ; preds = %6, %14, %17, %_.exit, %_.exit16
  %.0 = phi i32 [ -1, %_.exit16 ], [ 0, %_.exit ], [ 0, %17 ], [ 0, %14 ], [ 0, %6 ]
  ret i32 %.0
}